target datalayout = "e-m:e-p270:32:32-p271:32:32-p272:64:64-i64:64-i128:128-f80:128-n8:16:32:64-S128"
target triple = "x86_64-pc-linux-gnu"

%struct.loaded_feature_searching = type { ptr, i64, i32, i64, ptr }

; Function Attrs: nounwind sspstrong uwtable
define internal i32 @loaded_feature_path_i(i64 noundef %0, i64 noundef %1, i64 noundef %2) #0 {
  %4 = alloca i32, align 4
  %5 = alloca i64, align 8
  %6 = alloca i64, align 8
  %7 = alloca i64, align 8
  %8 = alloca ptr, align 8
  %9 = alloca ptr, align 8
  %10 = alloca i64, align 8
  %11 = alloca i32, align 4
  store i64 %0, ptr %5, align 8, !tbaa !12
  store i64 %1, ptr %6, align 8, !tbaa !12
  store i64 %2, ptr %7, align 8, !tbaa !12
  call void @llvm.lifetime.start.p0(i64 8, ptr %8) #8
  %12 = load i64, ptr %5, align 8, !tbaa !12
  %13 = inttoptr i64 %12 to ptr
  store ptr %13, ptr %8, align 8, !tbaa !43
  call void @llvm.lifetime.start.p0(i64 8, ptr %9) #8
  %14 = load i64, ptr %7, align 8, !tbaa !12
  %15 = inttoptr i64 %14 to ptr
  store ptr %15, ptr %9, align 8, !tbaa !231
  call void @llvm.lifetime.start.p0(i64 8, ptr %10) #8
  %16 = load ptr, ptr %8, align 8, !tbaa !43
  %17 = load ptr, ptr %8, align 8, !tbaa !43
  %18 = call i64 @strlen(ptr noundef %17) #29
  %19 = load ptr, ptr %9, align 8, !tbaa !231
  %20 = getelementptr inbounds nuw %struct.loaded_feature_searching, ptr %19, i32 0, i32 0
  %21 = load ptr, ptr %20, align 8, !tbaa !120
  %22 = load ptr, ptr %9, align 8, !tbaa !231
  %23 = getelementptr inbounds nuw %struct.loaded_feature_searching, ptr %22, i32 0, i32 1
  %24 = load i64, ptr %23, align 8, !tbaa !122
  %25 = load ptr, ptr %9, align 8, !tbaa !231
  %26 = getelementptr inbounds nuw %struct.loaded_feature_searching, ptr %25, i32 0, i32 2
  %27 = load i32, ptr %26, align 8, !tbaa !123
  %28 = load ptr, ptr %9, align 8, !tbaa !231
  %29 = getelementptr inbounds nuw %struct.loaded_feature_searching, ptr %28, i32 0, i32 3
  %30 = load i64, ptr %29, align 8, !tbaa !124
  %31 = call i64 @loaded_feature_path(ptr noundef %16, i64 noundef %18, ptr noundef %21, i64 noundef %24, i32 noundef %27, i64 noundef %30)
  store i64 %31, ptr %10, align 8, !tbaa !12
  %32 = load i64, ptr %10, align 8, !tbaa !12
  %33 = icmp ne i64 %32, 0
  br i1 %33, label %35, label %34

34:                                               ; preds = %3
  store i32 0, ptr %4, align 4
  store i32 1, ptr %11, align 4
  br label %39

35:                                               ; preds = %3
  %36 = load ptr, ptr %8, align 8, !tbaa !43
  %37 = load ptr, ptr %9, align 8, !tbaa !231
  %38 = getelementptr inbounds nuw %struct.loaded_feature_searching, ptr %37, i32 0, i32 4
  store ptr %36, ptr %38, align 8, !tbaa !125
  store i32 1, ptr %4, align 4
  store i32 1, ptr %11, align 4
  br label %39

39:                                               ; preds = %35, %34
  call void @llvm.lifetime.end.p0(i64 8, ptr %10) #8
  call void @llvm.lifetime.end.p0(i64 8, ptr %9) #8
  call void @llvm.lifetime.end.p0(i64 8, ptr %8) #8
  %40 = load i32, ptr %4, align 4
  ret i32 %40
}