; Function Attrs: nounwind sspstrong uwtable
define internal range(i32 0, 2) i32 @loaded_feature_path_i(i64 noundef %0, i64 %1, i64 noundef %2) #0 {
  %4 = inttoptr i64 %0 to ptr
  %5 = inttoptr i64 %2 to ptr
  %6 = tail call i64 @strlen(ptr noundef nonnull dereferenceable(1) %4) #25
  %7 = load ptr, ptr %5, align 8, !tbaa !172
  %8 = getelementptr inbounds nuw i8, ptr %5, i64 8
  %9 = load i64, ptr %8, align 8, !tbaa !174
  %10 = getelementptr inbounds nuw i8, ptr %5, i64 16
  %11 = load i32, ptr %10, align 8, !tbaa !175
  %12 = getelementptr inbounds nuw i8, ptr %5, i64 24
  %13 = load i64, ptr %12, align 8, !tbaa !176
  %14 = tail call fastcc i64 @loaded_feature_path(ptr noundef nonnull %4, i64 noundef %6, ptr noundef %7, i64 noundef %9, i32 noundef %11, i64 noundef %13)
  %.not = icmp eq i64 %14, 0
  br i1 %.not, label %17, label %15

15:                                               ; preds = %3
  %16 = getelementptr inbounds nuw i8, ptr %5, i64 32
  store ptr %4, ptr %16, align 8, !tbaa !177
  br label %17

17:                                               ; preds = %3, %15
  %.0 = phi i32 [ 1, %15 ], [ 0, %3 ]
  ret i32 %.0
}